; Function Attrs: mustprogress nounwind uwtable
define dso_local void @_ZN5clang14TextNodeDumper27VisitOMPExecutableDirectiveEPKNS_22OMPExecutableDirectiveE(ptr nocapture noundef nonnull readonly align 8 dereferenceable(1168) %0, ptr noundef nonnull %1) local_unnamed_addr #0 align 2 {
  %3 = tail call noundef zeroext i1 @_ZNK5clang22OMPExecutableDirective21isStandaloneDirectiveEv(ptr noundef nonnull align 8 dereferenceable(32) %1) #18
  br i1 %3, label %4, label %_ZN4llvm11raw_ostreamlsEPKc.exit

4:                                                ; preds = %2
  %5 = getelementptr inbounds nuw i8, ptr %0, i64 1096
  %6 = load ptr, ptr %5, align 8
  %7 = getelementptr inbounds nuw i8, ptr %6, i64 24
  %8 = load ptr, ptr %7, align 8
  %9 = getelementptr inbounds nuw i8, ptr %6, i64 32
  %10 = load ptr, ptr %9, align 8
  %11 = ptrtoint ptr %8 to i64
  %12 = ptrtoint ptr %10 to i64
  %13 = sub i64 %11, %12
  %14 = icmp ult i64 %13, 28
  br i1 %14, label %15, label %17

15:                                               ; preds = %4
  %16 = tail call noundef nonnull align 8 dereferenceable(48) ptr @_ZN4llvm11raw_ostream5writeEPKcm(ptr noundef nonnull align 8 dereferenceable(48) %6, ptr noundef nonnull @.str.750, i64 noundef 28) #18
  br label %_ZN4llvm11raw_ostreamlsEPKc.exit

17:                                               ; preds = %4
  tail call void @llvm.memcpy.p0.p0.i64(ptr noundef nonnull align 1 dereferenceable(28) %10, ptr noundef nonnull align 1 dereferenceable(28) @.str.750, i64 28, i1 false)
  %18 = load ptr, ptr %9, align 8
  %19 = getelementptr inbounds i8, ptr %18, i64 28
  store ptr %19, ptr %9, align 8
  br label %_ZN4llvm11raw_ostreamlsEPKc.exit

_ZN4llvm11raw_ostreamlsEPKc.exit:                 ; preds = %17, %15, %2
  ret void
}